; ModuleID = '3/2687.c'
source_filename = "3/2687.c"
target datalayout = "e-m:e-p270:32:32-p271:32:32-p272:64:64-i64:64-f80:128-n8:16:32:64-S128"
target triple = "x86_64-pc-linux-gnu"

@.str = private unnamed_addr constant [5 x i8] c"%d%d\00", align 1
@.str.1 = private unnamed_addr constant [3 x i8] c"%d\00", align 1
@.str.2 = private unnamed_addr constant [4 x i8] c"yes\00", align 1
@.str.3 = private unnamed_addr constant [3 x i8] c"no\00", align 1

; Function Attrs: noinline nounwind uwtable
define dso_local i32 @main() #0 {
  %1 = alloca i32, align 4
  %2 = alloca [100000 x i32], align 16
  %3 = alloca i32, align 4
  %4 = alloca i32, align 4
  %5 = alloca i32, align 4
  %6 = alloca i32, align 4
  %7 = alloca i32, align 4
  store i32 0, i32* %1, align 4
  %8 = bitcast [100000 x i32]* %2 to i8*
  call void @llvm.memset.p0i8.i64(i8* align 16 %8, i8 0, i64 400000, i1 false)
  store i32 0, i32* %7, align 4
  %9 = call i32 (i8*, ...) @__isoc99_scanf(i8* getelementptr inbounds ([5 x i8], [5 x i8]* @.str, i64 0, i64 0), i32* %3, i32* %4)
  store i32 0, i32* %6, align 4
  br label %10

10:                                               ; preds = %33, %0
  %11 = load i32, i32* %6, align 4
  %12 = load i32, i32* %3, align 4
  %13 = icmp slt i32 %11, %12
  br i1 %13, label %14, label %36

14:                                               ; preds = %10
  %15 = call i32 (i8*, ...) @__isoc99_scanf(i8* getelementptr inbounds ([3 x i8], [3 x i8]* @.str.1, i64 0, i64 0), i32* %5)
  %16 = load i32, i32* %5, align 4
  %17 = load i32, i32* %4, align 4
  %18 = icmp sgt i32 %16, %17
  br i1 %18, label %19, label %20

19:                                               ; preds = %14
  br label %33

20:                                               ; preds = %14
  %21 = load i32, i32* %5, align 4
  %22 = sext i32 %21 to i64
  %23 = getelementptr inbounds [100000 x i32], [100000 x i32]* %2, i64 0, i64 %22
  %24 = load i32, i32* %23, align 4
  %25 = icmp eq i32 %24, 1
  br i1 %25, label %26, label %27

26:                                               ; preds = %20
  store i32 1, i32* %7, align 4
  br label %36

27:                                               ; preds = %20
  %28 = load i32, i32* %4, align 4
  %29 = load i32, i32* %5, align 4
  %30 = sub nsw i32 %28, %29
  %31 = sext i32 %30 to i64
  %32 = getelementptr inbounds [100000 x i32], [100000 x i32]* %2, i64 0, i64 %31
  store i32 1, i32* %32, align 4
  br label %33

33:                                               ; preds = %27, %19
  %34 = load i32, i32* %6, align 4
  %35 = add nsw i32 %34, 1
  store i32 %35, i32* %6, align 4
  br label %10

36:                                               ; preds = %26, %10
  %37 = load i32, i32* %7, align 4
  %38 = icmp ne i32 %37, 0
  br i1 %38, label %39, label %41

39:                                               ; preds = %36
  %40 = call i32 (i8*, ...) @printf(i8* getelementptr inbounds ([4 x i8], [4 x i8]* @.str.2, i64 0, i64 0))
  br label %43

41:                                               ; preds = %36
  %42 = call i32 (i8*, ...) @printf(i8* getelementptr inbounds ([3 x i8], [3 x i8]* @.str.3, i64 0, i64 0))
  br label %43

43:                                               ; preds = %41, %39
  ret i32 0
}

; Function Attrs: argmemonly nounwind willreturn
declare void @llvm.memset.p0i8.i64(i8* nocapture writeonly, i8, i64, i1 immarg) #1

declare dso_local i32 @__isoc99_scanf(i8*, ...) #2

declare dso_local i32 @printf(i8*, ...) #2


!llvm.module.flags = !{!0}
!llvm.ident = !{!1}

!0 = !{i32 1, !"wchar_size", i32 4}
!1 = !{!"clang version 10.0.0-4ubuntu1 "}
